; Function Attrs: mustprogress nounwind uwtable
define dso_local noundef i32 @_ZN4node6crypto7NodeBIO5WriteEP6bio_stPKci(ptr noundef %bio, ptr nocapture noundef readonly %data, i32 noundef returned %len) #3 align 2 {
entry:
  tail call void @BIO_clear_flags(ptr noundef %bio, i32 noundef 15) #16
  %call.i = tail call ptr @BIO_get_data(ptr noundef %bio) #16
  %cmp.not.i = icmp eq ptr %call.i, null
  br i1 %cmp.not.i, label %do.body3.i, label %_ZN4node6crypto7NodeBIO7FromBIOEP6bio_st.exit

do.body3.i:                                       ; preds = %entry
  tail call void @_ZN4node6AssertERKNS_13AssertionInfoE(ptr noundef nonnull align 8 dereferenceable(24) @_ZZN4node6crypto7NodeBIO7FromBIOEP6bio_stE4args) #16
  tail call void @abort() #17
  unreachable

_ZN4node6crypto7NodeBIO7FromBIOEP6bio_st.exit:    ; preds = %entry
  %call5.i = tail call noundef ptr @BIO_get_data(ptr noundef %bio) #16
  %conv = sext i32 %len to i64
  tail call void @_ZN4node6crypto7NodeBIO5WriteEPKcm(ptr noundef nonnull align 8 dereferenceable(64) %call5.i, ptr noundef %data, i64 noundef %conv)
  ret i32 %len
}